; Function Attrs: mustprogress nofree norecurse nosync nounwind willreturn memory(argmem: readwrite) uwtable
define dso_local void @_ZNK18btMultiSphereShape21calculateLocalInertiaEfR9btVector3(ptr nocapture noundef nonnull readonly align 8 dereferenceable(176) %this, float noundef %mass, ptr nocapture noundef nonnull writeonly align 4 dereferenceable(16) %inertia) unnamed_addr #5 align 2 {
entry:
  %m_localAabbMin.i = getelementptr inbounds i8, ptr %this, i64 72
  %localAabbMin.sroa.3.0.m_localAabbMin.i.sroa_idx = getelementptr inbounds i8, ptr %this, i64 80
  %localAabbMin.sroa.3.0.copyload = load float, ptr %localAabbMin.sroa.3.0.m_localAabbMin.i.sroa_idx, align 8
  %m_localAabbMax.i = getelementptr inbounds i8, ptr %this, i64 88
  %localAabbMax.sroa.3.0.m_localAabbMax.i.sroa_idx = getelementptr inbounds i8, ptr %this, i64 96
  %localAabbMax.sroa.3.0.copyload = load float, ptr %localAabbMax.sroa.3.0.m_localAabbMax.i.sroa_idx, align 8
  %sub14.i = fsub float %localAabbMax.sroa.3.0.copyload, %localAabbMin.sroa.3.0.copyload
  %mul8.i = fmul float %sub14.i, 5.000000e-01
  %mul9 = fmul float %mul8.i, 2.000000e+00
  %div = fdiv float %mass, 1.200000e+01
  %mul12 = fmul float %mul9, %mul9
  %0 = load <2 x float>, ptr %m_localAabbMin.i, align 8
  %1 = load <2 x float>, ptr %m_localAabbMax.i, align 8
  %2 = fsub <2 x float> %1, %0
  %3 = fmul <2 x float> %2, <float 5.000000e-01, float 5.000000e-01>
  %4 = fmul <2 x float> %3, <float 2.000000e+00, float 2.000000e+00>
  %5 = insertelement <2 x float> poison, float %mul12, i64 0
  %6 = shufflevector <2 x float> %5, <2 x float> poison, <2 x i32> zeroinitializer
  %7 = tail call <2 x float> @llvm.fmuladd.v2f32(<2 x float> %4, <2 x float> %4, <2 x float> %6)
  %8 = insertelement <2 x float> poison, float %div, i64 0
  %9 = shufflevector <2 x float> %8, <2 x float> poison, <2 x i32> zeroinitializer
  %10 = fmul <2 x float> %9, %7
  %11 = fmul <2 x float> %4, %4
  %mul22 = extractelement <2 x float> %11, i64 1
  %12 = extractelement <2 x float> %4, i64 0
  %13 = tail call float @llvm.fmuladd.f32(float %12, float %12, float %mul22)
  %mul23 = fmul float %div, %13
  %14 = shufflevector <2 x float> %10, <2 x float> poison, <2 x i32> <i32 1, i32 0>
  store <2 x float> %14, ptr %inertia, align 4
  %arrayidx5.i20 = getelementptr inbounds i8, ptr %inertia, i64 8
  store float %mul23, ptr %arrayidx5.i20, align 4
  %arrayidx7.i21 = getelementptr inbounds i8, ptr %inertia, i64 12
  store float 0.000000e+00, ptr %arrayidx7.i21, align 4
  ret void
}